; Function Attrs: mustprogress nounwind uwtable
define hidden void @_ZN4cvc58internal16InteractiveShellD2Ev(ptr noundef nonnull align 8 captures(address) dereferenceable(88) %0) unnamed_addr #5 align 2 personality ptr @__gxx_personality_v0 {
  %2 = getelementptr inbounds nuw i8, ptr %0, i64 56
  %3 = load ptr, ptr %2, align 8, !tbaa !11
  %4 = getelementptr inbounds nuw i8, ptr %0, i64 72
  %5 = icmp eq ptr %3, %4
  br i1 %5, label %_ZNKSt7__cxx1112basic_stringIcSt11char_traitsIcESaIcEE11_M_is_localEv.exit.thread.i.i, label %_ZNKSt7__cxx1112basic_stringIcSt11char_traitsIcESaIcEE11_M_is_localEv.exit.i.i

_ZNKSt7__cxx1112basic_stringIcSt11char_traitsIcESaIcEE11_M_is_localEv.exit.thread.i.i: ; preds = %1
  %6 = getelementptr inbounds nuw i8, ptr %0, i64 64
  %7 = load i64, ptr %6, align 8, !tbaa !14
  %8 = icmp ult i64 %7, 16
  tail call void @llvm.assume(i1 %8)
  br label %_ZNSt7__cxx1112basic_stringIcSt11char_traitsIcESaIcEED2Ev.exit

_ZNKSt7__cxx1112basic_stringIcSt11char_traitsIcESaIcEE11_M_is_localEv.exit.i.i: ; preds = %1
  %9 = load i64, ptr %4, align 8, !tbaa !13
  %10 = add i64 %9, 1
  tail call void @_ZdlPvm(ptr noundef %3, i64 noundef %10) #28
  br label %_ZNSt7__cxx1112basic_stringIcSt11char_traitsIcESaIcEED2Ev.exit

_ZNSt7__cxx1112basic_stringIcSt11char_traitsIcESaIcEED2Ev.exit: ; preds = %_ZNKSt7__cxx1112basic_stringIcSt11char_traitsIcESaIcEE11_M_is_localEv.exit.thread.i.i, %_ZNKSt7__cxx1112basic_stringIcSt11char_traitsIcESaIcEE11_M_is_localEv.exit.i.i
  %11 = getelementptr inbounds nuw i8, ptr %0, i64 40
  %12 = load ptr, ptr %11, align 8, !tbaa !56
  %.not.i = icmp eq ptr %12, null
  br i1 %.not.i, label %_ZNSt10unique_ptrIN4cvc56parser11InputParserESt14default_deleteIS2_EED2Ev.exit, label %_ZNKSt14default_deleteIN4cvc56parser11InputParserEEclEPS2_.exit.i

_ZNKSt14default_deleteIN4cvc56parser11InputParserEEclEPS2_.exit.i: ; preds = %_ZNSt7__cxx1112basic_stringIcSt11char_traitsIcESaIcEED2Ev.exit
  tail call void @_ZN4cvc56parser11InputParserD2Ev(ptr noundef nonnull align 8 dereferenceable(472) %12) #26
  tail call void @_ZdlPvm(ptr noundef nonnull %12, i64 noundef 472) #28
  br label %_ZNSt10unique_ptrIN4cvc56parser11InputParserESt14default_deleteIS2_EED2Ev.exit

_ZNSt10unique_ptrIN4cvc56parser11InputParserESt14default_deleteIS2_EED2Ev.exit: ; preds = %_ZNSt7__cxx1112basic_stringIcSt11char_traitsIcESaIcEED2Ev.exit, %_ZNKSt14default_deleteIN4cvc56parser11InputParserEEclEPS2_.exit.i
  store ptr null, ptr %11, align 8, !tbaa !56
  ret void
}